; ModuleID = '32/2343.c'
source_filename = "32/2343.c"
target datalayout = "e-m:e-p270:32:32-p271:32:32-p272:64:64-i64:64-f80:128-n8:16:32:64-S128"
target triple = "x86_64-pc-linux-gnu"

@.str = private unnamed_addr constant [3 x i8] c"%d\00", align 1
@.str.1 = private unnamed_addr constant [3 x i8] c"%s\00", align 1
@.str.2 = private unnamed_addr constant [2 x i8] c"\0A\00", align 1
@.str.3 = private unnamed_addr constant [3 x i8] c"%c\00", align 1

; Function Attrs: noinline nounwind uwtable
define dso_local i32 @main() #0 {
  %1 = alloca i32, align 4
  %2 = alloca i32, align 4
  %3 = alloca i32, align 4
  %4 = alloca [101 x i8], align 16
  %5 = alloca [101 x i8], align 16
  %6 = alloca [101 x i8], align 16
  %7 = alloca i32, align 4
  %8 = alloca i32, align 4
  %9 = alloca i32, align 4
  %10 = alloca i32, align 4
  %11 = alloca i32, align 4
  %12 = alloca i32, align 4
  %13 = alloca i32, align 4
  %14 = alloca i32, align 4
  %15 = alloca i32, align 4
  %16 = alloca i32, align 4
  store i32 0, i32* %1, align 4
  %17 = call i32 (i8*, ...) @__isoc99_scanf(i8* getelementptr inbounds ([3 x i8], [3 x i8]* @.str, i64 0, i64 0), i32* %2)
  store i32 1, i32* %3, align 4
  br label %18

18:                                               ; preds = %170, %0
  %19 = load i32, i32* %3, align 4
  %20 = load i32, i32* %2, align 4
  %21 = icmp sle i32 %19, %20
  br i1 %21, label %22, label %173

22:                                               ; preds = %18
  %23 = bitcast [101 x i8]* %5 to i8*
  call void @llvm.memset.p0i8.i64(i8* align 16 %23, i8 0, i64 101, i1 false)
  %24 = bitcast i8* %23 to <{ i8, [100 x i8] }>*
  %25 = getelementptr inbounds <{ i8, [100 x i8] }>, <{ i8, [100 x i8] }>* %24, i32 0, i32 0
  store i8 48, i8* %25, align 16
  %26 = bitcast [101 x i8]* %6 to i8*
  call void @llvm.memset.p0i8.i64(i8* align 16 %26, i8 0, i64 101, i1 false)
  %27 = getelementptr inbounds [101 x i8], [101 x i8]* %4, i64 0, i64 0
  %28 = call i32 (i8*, ...) @__isoc99_scanf(i8* getelementptr inbounds ([3 x i8], [3 x i8]* @.str.1, i64 0, i64 0), i8* %27)
  %29 = getelementptr inbounds [101 x i8], [101 x i8]* %5, i64 0, i64 0
  %30 = call i32 (i8*, ...) @__isoc99_scanf(i8* getelementptr inbounds ([3 x i8], [3 x i8]* @.str.1, i64 0, i64 0), i8* %29)
  %31 = call i32 (i8*, ...) @printf(i8* getelementptr inbounds ([2 x i8], [2 x i8]* @.str.2, i64 0, i64 0))
  store i32 0, i32* %10, align 4
  %32 = getelementptr inbounds [101 x i8], [101 x i8]* %4, i64 0, i64 0
  %33 = call i64 @strlen(i8* %32) #4
  %34 = trunc i64 %33 to i32
  store i32 %34, i32* %7, align 4
  %35 = getelementptr inbounds [101 x i8], [101 x i8]* %5, i64 0, i64 0
  %36 = call i64 @strlen(i8* %35) #4
  %37 = trunc i64 %36 to i32
  store i32 %37, i32* %8, align 4
  store i32 1, i32* %9, align 4
  br label %38

38:                                               ; preds = %86, %22
  %39 = load i32, i32* %9, align 4
  %40 = load i32, i32* %8, align 4
  %41 = icmp sle i32 %39, %40
  br i1 %41, label %42, label %89

42:                                               ; preds = %38
  %43 = load i32, i32* %7, align 4
  %44 = load i32, i32* %9, align 4
  %45 = sub nsw i32 %43, %44
  %46 = sext i32 %45 to i64
  %47 = getelementptr inbounds [101 x i8], [101 x i8]* %4, i64 0, i64 %46
  %48 = load i8, i8* %47, align 1
  %49 = sext i8 %48 to i32
  %50 = sub nsw i32 %49, 48
  store i32 %50, i32* %11, align 4
  %51 = load i32, i32* %8, align 4
  %52 = load i32, i32* %9, align 4
  %53 = sub nsw i32 %51, %52
  %54 = sext i32 %53 to i64
  %55 = getelementptr inbounds [101 x i8], [101 x i8]* %5, i64 0, i64 %54
  %56 = load i8, i8* %55, align 1
  %57 = sext i8 %56 to i32
  %58 = sub nsw i32 %57, 48
  store i32 %58, i32* %12, align 4
  %59 = load i32, i32* %11, align 4
  %60 = load i32, i32* %10, align 4
  %61 = add nsw i32 %59, %60
  %62 = load i32, i32* %12, align 4
  %63 = icmp sge i32 %61, %62
  br i1 %63, label %64, label %70

64:                                               ; preds = %42
  %65 = load i32, i32* %11, align 4
  %66 = load i32, i32* %12, align 4
  %67 = sub nsw i32 %65, %66
  %68 = load i32, i32* %10, align 4
  %69 = add nsw i32 %67, %68
  store i32 %69, i32* %13, align 4
  store i32 0, i32* %10, align 4
  br label %77

70:                                               ; preds = %42
  %71 = load i32, i32* %11, align 4
  %72 = add nsw i32 10, %71
  %73 = load i32, i32* %12, align 4
  %74 = sub nsw i32 %72, %73
  %75 = load i32, i32* %10, align 4
  %76 = add nsw i32 %74, %75
  store i32 %76, i32* %13, align 4
  store i32 -1, i32* %10, align 4
  br label %77

77:                                               ; preds = %70, %64
  %78 = load i32, i32* %13, align 4
  %79 = add nsw i32 %78, 48
  %80 = trunc i32 %79 to i8
  %81 = load i32, i32* %7, align 4
  %82 = load i32, i32* %9, align 4
  %83 = sub nsw i32 %81, %82
  %84 = sext i32 %83 to i64
  %85 = getelementptr inbounds [101 x i8], [101 x i8]* %6, i64 0, i64 %84
  store i8 %80, i8* %85, align 1
  br label %86

86:                                               ; preds = %77
  %87 = load i32, i32* %9, align 4
  %88 = add nsw i32 %87, 1
  store i32 %88, i32* %9, align 4
  br label %38

89:                                               ; preds = %38
  %90 = load i32, i32* %7, align 4
  %91 = load i32, i32* %8, align 4
  %92 = icmp sgt i32 %90, %91
  br i1 %92, label %93, label %133

93:                                               ; preds = %89
  %94 = load i32, i32* %7, align 4
  %95 = load i32, i32* %8, align 4
  %96 = sub nsw i32 %94, %95
  %97 = sub nsw i32 %96, 1
  %98 = sext i32 %97 to i64
  %99 = getelementptr inbounds [101 x i8], [101 x i8]* %4, i64 0, i64 %98
  %100 = load i8, i8* %99, align 1
  %101 = sext i8 %100 to i32
  %102 = sub nsw i32 %101, 48
  store i32 %102, i32* %14, align 4
  %103 = load i32, i32* %14, align 4
  %104 = load i32, i32* %10, align 4
  %105 = add nsw i32 %103, %104
  %106 = add nsw i32 %105, 48
  %107 = trunc i32 %106 to i8
  %108 = load i32, i32* %7, align 4
  %109 = load i32, i32* %8, align 4
  %110 = sub nsw i32 %108, %109
  %111 = sub nsw i32 %110, 1
  %112 = sext i32 %111 to i64
  %113 = getelementptr inbounds [101 x i8], [101 x i8]* %6, i64 0, i64 %112
  store i8 %107, i8* %113, align 1
  store i32 0, i32* %15, align 4
  br label %114

114:                                              ; preds = %129, %93
  %115 = load i32, i32* %15, align 4
  %116 = load i32, i32* %7, align 4
  %117 = load i32, i32* %8, align 4
  %118 = sub nsw i32 %116, %117
  %119 = sub nsw i32 %118, 1
  %120 = icmp slt i32 %115, %119
  br i1 %120, label %121, label %132

121:                                              ; preds = %114
  %122 = load i32, i32* %15, align 4
  %123 = sext i32 %122 to i64
  %124 = getelementptr inbounds [101 x i8], [101 x i8]* %4, i64 0, i64 %123
  %125 = load i8, i8* %124, align 1
  %126 = load i32, i32* %15, align 4
  %127 = sext i32 %126 to i64
  %128 = getelementptr inbounds [101 x i8], [101 x i8]* %6, i64 0, i64 %127
  store i8 %125, i8* %128, align 1
  br label %129

129:                                              ; preds = %121
  %130 = load i32, i32* %15, align 4
  %131 = add nsw i32 %130, 1
  store i32 %131, i32* %15, align 4
  br label %114

132:                                              ; preds = %114
  br label %133

133:                                              ; preds = %132, %89
  store i32 0, i32* %16, align 4
  br label %134

134:                                              ; preds = %153, %133
  %135 = load i32, i32* %16, align 4
  %136 = load i32, i32* %7, align 4
  %137 = sub nsw i32 %136, 1
  %138 = icmp slt i32 %135, %137
  br i1 %138, label %139, label %156

139:                                              ; preds = %134
  %140 = load i32, i32* %16, align 4
  %141 = sext i32 %140 to i64
  %142 = getelementptr inbounds [101 x i8], [101 x i8]* %6, i64 0, i64 %141
  %143 = load i8, i8* %142, align 1
  %144 = sext i8 %143 to i32
  %145 = icmp ne i32 %144, 48
  br i1 %145, label %146, label %152

146:                                              ; preds = %139
  %147 = getelementptr inbounds [101 x i8], [101 x i8]* %6, i64 0, i64 0
  %148 = load i32, i32* %16, align 4
  %149 = sext i32 %148 to i64
  %150 = getelementptr inbounds i8, i8* %147, i64 %149
  %151 = call i32 (i8*, ...) @printf(i8* getelementptr inbounds ([3 x i8], [3 x i8]* @.str.1, i64 0, i64 0), i8* %150)
  br label %156

152:                                              ; preds = %139
  br label %153

153:                                              ; preds = %152
  %154 = load i32, i32* %16, align 4
  %155 = add nsw i32 %154, 1
  store i32 %155, i32* %16, align 4
  br label %134

156:                                              ; preds = %146, %134
  %157 = load i32, i32* %16, align 4
  %158 = load i32, i32* %7, align 4
  %159 = sub nsw i32 %158, 1
  %160 = icmp eq i32 %157, %159
  br i1 %160, label %161, label %169

161:                                              ; preds = %156
  %162 = load i32, i32* %7, align 4
  %163 = sub nsw i32 %162, 1
  %164 = sext i32 %163 to i64
  %165 = getelementptr inbounds [101 x i8], [101 x i8]* %6, i64 0, i64 %164
  %166 = load i8, i8* %165, align 1
  %167 = sext i8 %166 to i32
  %168 = call i32 (i8*, ...) @printf(i8* getelementptr inbounds ([3 x i8], [3 x i8]* @.str.3, i64 0, i64 0), i32 %167)
  br label %169

169:                                              ; preds = %161, %156
  br label %170

170:                                              ; preds = %169
  %171 = load i32, i32* %3, align 4
  %172 = add nsw i32 %171, 1
  store i32 %172, i32* %3, align 4
  br label %18

173:                                              ; preds = %18
  ret i32 0
}

declare dso_local i32 @__isoc99_scanf(i8*, ...) #1

; Function Attrs: argmemonly nounwind willreturn
declare void @llvm.memset.p0i8.i64(i8* nocapture writeonly, i8, i64, i1 immarg) #2

declare dso_local i32 @printf(i8*, ...) #1

; Function Attrs: nounwind readonly
declare dso_local i64 @strlen(i8*) #3


!llvm.module.flags = !{!0}
!llvm.ident = !{!1}

!0 = !{i32 1, !"wchar_size", i32 4}
!1 = !{!"clang version 10.0.0-4ubuntu1 "}
